target datalayout = "e-m:e-p270:32:32-p271:32:32-p272:64:64-i64:64-i128:128-f80:128-n8:16:32:64-S128"
target triple = "x86_64-pc-linux-gnu"

%struct.Table = type { ptr, i8, i8, i8, i8, i32, ptr, ptr, ptr, ptr }

; Function Attrs: nounwind uwtable
define internal i64 @sizehash(ptr noundef %0) #0 {
  %2 = alloca ptr, align 8
  store ptr %0, ptr %2, align 8, !tbaa !9
  %3 = load ptr, ptr %2, align 8, !tbaa !9
  %4 = getelementptr inbounds nuw %struct.Table, ptr %3, i32 0, i32 4
  %5 = load i8, ptr %4, align 1, !tbaa !27
  %6 = zext i8 %5 to i32
  %7 = shl i32 1, %6
  %8 = zext i32 %7 to i64
  %9 = mul i64 %8, 24
  %10 = load ptr, ptr %2, align 8, !tbaa !9
  %11 = getelementptr inbounds nuw %struct.Table, ptr %10, i32 0, i32 4
  %12 = load i8, ptr %11, align 1, !tbaa !27
  %13 = zext i8 %12 to i32
  %14 = icmp sge i32 %13, 3
  %15 = select i1 %14, i64 8, i64 0
  %16 = add i64 %9, %15
  ret i64 %16
}

; Function Attrs: nounwind uwtable
define internal i64 @concretesize(i32 noundef %0) #0 {
  %2 = alloca i64, align 8
  %3 = alloca i32, align 4
  store i32 %0, ptr %3, align 4, !tbaa !19
  %4 = load i32, ptr %3, align 4, !tbaa !19
  %5 = icmp eq i32 %4, 0
  br i1 %5, label %6, label %7

6:                                                ; preds = %1
  store i64 0, ptr %2, align 8
  br label %12

7:                                                ; preds = %1
  %8 = load i32, ptr %3, align 4, !tbaa !19
  %9 = zext i32 %8 to i64
  %10 = mul i64 %9, 9
  %11 = add i64 %10, 4
  store i64 %11, ptr %2, align 8
  br label %12

12:                                               ; preds = %7, %6
  %13 = load i64, ptr %2, align 8
  ret i64 %13
}

; Function Attrs: nounwind uwtable
define hidden i64 @luaH_size(ptr noundef %0) #0 {
  %2 = alloca ptr, align 8
  %3 = alloca i64, align 8
  store ptr %0, ptr %2, align 8, !tbaa !9
  call void @llvm.lifetime.start.p0(i64 8, ptr %3) #8
  %4 = load ptr, ptr %2, align 8, !tbaa !9
  %5 = getelementptr inbounds nuw %struct.Table, ptr %4, i32 0, i32 5
  %6 = load i32, ptr %5, align 4, !tbaa !13
  %7 = call i64 @concretesize(i32 noundef %6)
  %8 = add i64 48, %7
  store i64 %8, ptr %3, align 8, !tbaa !32
  %9 = load ptr, ptr %2, align 8, !tbaa !9
  %10 = getelementptr inbounds nuw %struct.Table, ptr %9, i32 0, i32 3
  %11 = load i8, ptr %10, align 2, !tbaa !30
  %12 = zext i8 %11 to i32
  %13 = and i32 %12, 64
  %14 = icmp ne i32 %13, 0
  br i1 %14, label %20, label %15

15:                                               ; preds = %1
  %16 = load ptr, ptr %2, align 8, !tbaa !9
  %17 = call i64 @sizehash(ptr noundef %16)
  %18 = load i64, ptr %3, align 8, !tbaa !32
  %19 = add i64 %18, %17
  store i64 %19, ptr %3, align 8, !tbaa !32
  br label %20

20:                                               ; preds = %15, %1
  %21 = load i64, ptr %3, align 8, !tbaa !32
  call void @llvm.lifetime.end.p0(i64 8, ptr %3) #8
  ret i64 %21
}