; Function Attrs: mustprogress nofree norecurse nosync nounwind willreturn memory(argmem: read) uwtable
define hidden range(i64 48, 141733920796) i64 @luaH_size(ptr noundef readonly captures(none) %0) local_unnamed_addr #5 {
  %2 = getelementptr inbounds nuw i8, ptr %0, i64 12
  %3 = load i32, ptr %2, align 4, !tbaa !4
  %4 = icmp eq i32 %3, 0
  %5 = zext i32 %3 to i64
  %6 = mul nuw nsw i64 %5, 9
  %7 = add nuw nsw i64 %6, 52
  %8 = select i1 %4, i64 48, i64 %7
  %9 = getelementptr inbounds nuw i8, ptr %0, i64 10
  %10 = load i8, ptr %9, align 2, !tbaa !21
  %11 = and i8 %10, 64
  %.not = icmp eq i8 %11, 0
  br i1 %.not, label %12, label %20

12:                                               ; preds = %1
  %13 = getelementptr i8, ptr %0, i64 11
  %.val = load i8, ptr %13, align 1, !tbaa !20
  %14 = zext nneg i8 %.val to i64
  %15 = shl nuw i64 24, %14
  %16 = icmp ugt i8 %.val, 2
  %17 = select i1 %16, i64 8, i64 0
  %18 = add nuw nsw i64 %17, %8
  %19 = add nuw nsw i64 %18, %15
  br label %20

20:                                               ; preds = %12, %1
  %.0 = phi i64 [ %8, %1 ], [ %19, %12 ]
  ret i64 %.0
}